target datalayout = "e-m:e-p270:32:32-p271:32:32-p272:64:64-i64:64-i128:128-f80:128-n8:16:32:64-S128"
target triple = "x86_64-pc-linux-gnu"

%struct.semholder_s = type { ptr, ptr, ptr, ptr, i16 }

@g_holderalloc = internal global [8 x %struct.semholder_s] zeroinitializer, align 16
@g_freeholders = internal global ptr null, align 8

; Function Attrs: nounwind uwtable
define void @nxsem_initialize_holders() #0 {
  %1 = alloca i32, align 4
  store ptr @g_holderalloc, ptr @g_freeholders, align 8
  store i32 0, ptr %1, align 4
  br label %2

2:                                                ; preds = %14, %0
  %3 = load i32, ptr %1, align 4
  %4 = icmp slt i32 %3, 7
  br i1 %4, label %5, label %17

5:                                                ; preds = %2
  %6 = load i32, ptr %1, align 4
  %7 = add nsw i32 %6, 1
  %8 = sext i32 %7 to i64
  %9 = getelementptr inbounds [8 x %struct.semholder_s], ptr @g_holderalloc, i64 0, i64 %8
  %10 = load i32, ptr %1, align 4
  %11 = sext i32 %10 to i64
  %12 = getelementptr inbounds [8 x %struct.semholder_s], ptr @g_holderalloc, i64 0, i64 %11
  %13 = getelementptr inbounds %struct.semholder_s, ptr %12, i32 0, i32 0
  store ptr %9, ptr %13, align 8
  br label %14

14:                                               ; preds = %5
  %15 = load i32, ptr %1, align 4
  %16 = add nsw i32 %15, 1
  store i32 %16, ptr %1, align 4
  br label %2, !llvm.loop !6

17:                                               ; preds = %2
  %18 = getelementptr inbounds [8 x %struct.semholder_s], ptr @g_holderalloc, i64 0, i64 7
  store ptr null, ptr %18, align 8
  ret void
}