; Function Attrs: nofree norecurse nosync nounwind memory(write, argmem: none, inaccessiblemem: none) uwtable
define void @nxsem_initialize_holders() local_unnamed_addr #0 {
  store ptr @g_holderalloc, ptr @g_freeholders, align 8
  br label %1

1:                                                ; preds = %0, %1
  %indvars.iv = phi i64 [ 0, %0 ], [ %indvars.iv.next, %1 ]
  %indvars.iv.next = add nuw nsw i64 %indvars.iv, 1
  %2 = getelementptr inbounds nuw [8 x %struct.semholder_s], ptr @g_holderalloc, i64 0, i64 %indvars.iv.next
  %3 = getelementptr inbounds nuw [8 x %struct.semholder_s], ptr @g_holderalloc, i64 0, i64 %indvars.iv
  store ptr %2, ptr %3, align 8
  %exitcond.not = icmp eq i64 %indvars.iv.next, 7
  br i1 %exitcond.not, label %4, label %1, !llvm.loop !6

4:                                                ; preds = %1
  store ptr null, ptr getelementptr inbounds nuw (i8, ptr @g_holderalloc, i64 280), align 8
  ret void
}